; Function Attrs: nounwind uwtable
define hidden i32 @mbedtls_asn1_write_mpi(ptr noundef captures(none) %0, ptr noundef %1, ptr noundef %2) local_unnamed_addr #4 {
  %4 = tail call i64 @mbedtls_mpi_size(ptr noundef %2) #10
  %spec.store.select = tail call i64 @llvm.umax.i64(i64 %4, i64 1)
  %5 = load ptr, ptr %0, align 8, !tbaa !5
  %6 = icmp ult ptr %5, %1
  br i1 %6, label %mbedtls_asn1_write_len_and_tag.exit, label %7

7:                                                ; preds = %3
  %8 = ptrtoint ptr %5 to i64
  %9 = ptrtoint ptr %1 to i64
  %10 = sub i64 %8, %9
  %11 = icmp ult i64 %10, %spec.store.select
  br i1 %11, label %mbedtls_asn1_write_len_and_tag.exit, label %12

12:                                               ; preds = %7
  %13 = sub i64 0, %spec.store.select
  %14 = getelementptr inbounds i8, ptr %5, i64 %13
  store ptr %14, ptr %0, align 8, !tbaa !5
  %15 = tail call i32 @mbedtls_mpi_write_binary(ptr noundef %2, ptr noundef nonnull %14, i64 noundef %spec.store.select) #10
  %.not = icmp eq i32 %15, 0
  br i1 %.not, label %16, label %mbedtls_asn1_write_len_and_tag.exit

16:                                               ; preds = %12
  %17 = getelementptr inbounds nuw i8, ptr %2, i64 8
  %18 = load i16, ptr %17, align 8, !tbaa !12
  %19 = icmp eq i16 %18, 1
  br i1 %19, label %20, label %30

20:                                               ; preds = %16
  %21 = load ptr, ptr %0, align 8, !tbaa !5
  %22 = load i8, ptr %21, align 1, !tbaa !10
  %.not27 = icmp sgt i8 %22, -1
  br i1 %.not27, label %30, label %23

23:                                               ; preds = %20
  %24 = ptrtoint ptr %21 to i64
  %25 = sub i64 %24, %9
  %26 = icmp slt i64 %25, 1
  br i1 %26, label %mbedtls_asn1_write_len_and_tag.exit, label %27

27:                                               ; preds = %23
  %28 = getelementptr inbounds i8, ptr %21, i64 -1
  store ptr %28, ptr %0, align 8, !tbaa !5
  store i8 0, ptr %28, align 1, !tbaa !10
  %29 = add i64 %spec.store.select, 1
  br label %30

30:                                               ; preds = %27, %20, %16
  %.0 = phi i64 [ %29, %27 ], [ %spec.store.select, %20 ], [ %spec.store.select, %16 ]
  %31 = icmp ugt i64 %.0, 4294967295
  br i1 %31, label %mbedtls_asn1_write_len_and_tag.exit, label %32

32:                                               ; preds = %30
  %33 = icmp samesign ugt i64 %.0, 127
  br i1 %33, label %.preheader23.i.i, label %.loopexit.i.i

.preheader23.i.i:                                 ; preds = %32, %.preheader23.i.i
  %.025.i.i = phi i64 [ %35, %.preheader23.i.i ], [ %.0, %32 ]
  %.124.i.i = phi i32 [ %34, %.preheader23.i.i ], [ 1, %32 ]
  %34 = add nuw nsw i32 %.124.i.i, 1
  %35 = lshr i64 %.025.i.i, 8
  %.not.i.i = icmp ult i64 %.025.i.i, 256
  br i1 %.not.i.i, label %.loopexit.i.i, label %.preheader23.i.i, !llvm.loop !3

.loopexit.i.i:                                    ; preds = %.preheader23.i.i, %32
  %.017.i.i = phi i32 [ 1, %32 ], [ %34, %.preheader23.i.i ]
  %36 = zext nneg i32 %.017.i.i to i64
  %37 = load ptr, ptr %0, align 8, !tbaa !5
  %38 = ptrtoint ptr %37 to i64
  %39 = sub i64 %38, %9
  %40 = icmp slt i64 %39, %36
  br i1 %40, label %mbedtls_asn1_write_len_and_tag.exit, label %.preheader.i.i

.preheader.i.i:                                   ; preds = %.loopexit.i.i, %.preheader.i.i
  %.018.i.i = phi i64 [ %44, %.preheader.i.i ], [ %.0, %.loopexit.i.i ]
  %41 = trunc i64 %.018.i.i to i8
  %42 = load ptr, ptr %0, align 8, !tbaa !5
  %43 = getelementptr inbounds i8, ptr %42, i64 -1
  store ptr %43, ptr %0, align 8, !tbaa !5
  store i8 %41, ptr %43, align 1, !tbaa !10
  %44 = lshr i64 %.018.i.i, 8
  %.not22.i.i = icmp ult i64 %.018.i.i, 256
  br i1 %.not22.i.i, label %45, label %.preheader.i.i, !llvm.loop !11

45:                                               ; preds = %.preheader.i.i
  %46 = icmp samesign ugt i32 %.017.i.i, 1
  br i1 %46, label %47, label %mbedtls_asn1_write_len.exit.i

47:                                               ; preds = %45
  %48 = trunc i32 %.017.i.i to i8
  %49 = add i8 %48, 127
  %50 = load ptr, ptr %0, align 8, !tbaa !5
  %51 = getelementptr inbounds i8, ptr %50, i64 -1
  store ptr %51, ptr %0, align 8, !tbaa !5
  store i8 %49, ptr %51, align 1, !tbaa !10
  br label %mbedtls_asn1_write_len.exit.i

mbedtls_asn1_write_len.exit.i:                    ; preds = %47, %45
  %52 = load ptr, ptr %0, align 8, !tbaa !5
  %53 = ptrtoint ptr %52 to i64
  %54 = sub i64 %53, %9
  %55 = icmp slt i64 %54, 1
  br i1 %55, label %mbedtls_asn1_write_len_and_tag.exit, label %56

56:                                               ; preds = %mbedtls_asn1_write_len.exit.i
  %57 = getelementptr inbounds i8, ptr %52, i64 -1
  store ptr %57, ptr %0, align 8, !tbaa !5
  store i8 2, ptr %57, align 1, !tbaa !10
  %58 = trunc nuw i64 %.0 to i32
  %59 = add i32 %58, 1
  %60 = add i32 %59, %.017.i.i
  br label %mbedtls_asn1_write_len_and_tag.exit

mbedtls_asn1_write_len_and_tag.exit:              ; preds = %56, %mbedtls_asn1_write_len.exit.i, %.loopexit.i.i, %30, %12, %23, %3, %7
  %.023 = phi i32 [ -108, %7 ], [ -108, %3 ], [ -108, %23 ], [ %15, %12 ], [ %60, %56 ], [ -108, %.loopexit.i.i ], [ -100, %30 ], [ -108, %mbedtls_asn1_write_len.exit.i ]
  ret i32 %.023
}